(imodel
CinemaContainer
p0
(dp2
S'cinema_ids'
p3
(lp4
I0
aI2
aI3
aI4
asS'items'
p5
(dp6
I0
(imodel
Cinema
p7
(dp8
S'location_city'
p9
S'Lviv'
p10
sS'rating'
p11
F0.7642713831853551
sS'cinema_id'
p12
I0
sS'cinema_name'
p13
S'Cinema 00'
p14
sbsI2
(imodel
Cinema
p15
(dp16
g9
g10
sg11
F0.598829677660477
sg12
I2
sg13
S'Cinema 02'
p17
sbsI3
(imodel
Cinema
p18
(dp19
g9
g10
sg11
F0.43110281921659965
sg12
I3
sg13
S'Cinema 03'
p20
sbsI4
(imodel
Cinema
p21
(dp22
g9
S'Kharkiv'
p23
sg11
F0.9292246458120346
sg12
I4
sg13
S'Cinema 04'
p24
sbssb.