(imodel
MovieSessionContainer
p0
(dp1
S'items'
p2
(dp3
I0
(imodel
MovieSession
p4
(dp5
S'length'
p6
I90
sS'cinema_id'
p7
I4
sS'movie_name'
p8
S'Birdman'
p9
sS'start_time'
p10
cdatetime
time
p11
(S'\x13\x00\x00\x00\x00\x00'
p12
tp13
Rp14
sS'session_id'
p15
I0
sbsI1
(imodel
MovieSession
p16
(dp17
g6
I124
sg7
I0
sg8
S'Birdman'
p18
sg10
g11
(S'\x12\x00\x00\x00\x00\x00'
p19
tp20
Rp21
sg15
I1
sbsI2
(imodel
MovieSession
p22
(dp23
g10
g11
(S'\x117\x00\x00\x00\x00'
p24
tp25
Rp26
sg6
I124
sg8
S'Birdman'
p27
sg7
I2
sg15
I2
sbsI3
(imodel
MovieSession
p28
(dp29
g6
I95
sg7
I4
sg8
S'Snatch'
p30
sg10
g11
(S'\x177\x00\x00\x00\x00'
p31
tp32
Rp33
sg15
I3
sbsI4
(imodel
MovieSession
p34
(dp35
g6
I90
sg7
I3
sg8
S'Alien'
p36
sg10
g11
(S'\x13\x00\x00\x00\x00\x00'
p37
tp38
Rp39
sg15
I4
sbsI5
(imodel
MovieSession
p40
(dp41
g6
I90
sg7
I0
sg8
S'Kill Bill'
p42
sg10
g11
(S'\x17\x00\x00\x00\x00\x00'
p43
tp44
Rp45
sg15
I5
sbsI6
(imodel
MovieSession
p46
(dp47
g6
I90
sg7
I0
sg8
S'Clockwork Orange'
p48
sg10
g11
(S'\x0f\x00\x00\x00\x00\x00'
p49
tp50
Rp51
sg15
I6
sbsI7
(imodel
MovieSession
p52
(dp53
g6
I90
sg7
I3
sg8
g9
sg10
g11
(S'\x0f\x00\x00\x00\x00\x00'
p54
tp55
Rp56
sg15
I7
sbsI8
(imodel
MovieSession
p57
(dp58
g6
I90
sg7
I3
sg8
S'Pulp Fiction'
p59
sg10
g11
(S'\x0f\x00\x00\x00\x00\x00'
p60
tp61
Rp62
sg15
I8
sbsI9
(imodel
MovieSession
p63
(dp64
g6
I90
sg7
I4
sg8
g48
sg10
g11
(S'\x0f\x00\x00\x00\x00\x00'
p65
tp66
Rp67
sg15
I9
sbssb.